; Function Attrs: mustprogress nofree nounwind willreturn memory(read) uwtable
define dso_local noundef i32 @_ZNK4Json17ValueIteratorBase15computeDistanceERKS0_(ptr nocapture noundef nonnull readonly align 8 dereferenceable(9) %0, ptr nocapture noundef nonnull readonly align 8 dereferenceable(9) %1) local_unnamed_addr #17 align 2 {
  %3 = getelementptr inbounds i8, ptr %0, i64 8
  %4 = load i8, ptr %3, align 8
  %5 = trunc i8 %4 to i1
  br i1 %5, label %6, label %10

6:                                                ; preds = %2
  %7 = getelementptr inbounds i8, ptr %1, i64 8
  %8 = load i8, ptr %7, align 8
  %9 = trunc i8 %8 to i1
  br i1 %9, label %.loopexit, label %10

10:                                               ; preds = %6, %2
  %11 = load i64, ptr %0, align 8
  %12 = inttoptr i64 %11 to ptr
  %13 = load ptr, ptr %1, align 8
  %.not7 = icmp eq ptr %13, %12
  br i1 %.not7, label %.loopexit, label %.lr.ph

.lr.ph:                                           ; preds = %10, %.lr.ph
  %.09 = phi i32 [ %14, %.lr.ph ], [ 0, %10 ]
  %.sroa.0.08 = phi ptr [ %15, %.lr.ph ], [ %12, %10 ]
  %14 = add nuw nsw i32 %.09, 1
  %15 = tail call noundef ptr @_ZSt18_Rb_tree_incrementPSt18_Rb_tree_node_base(ptr noundef %.sroa.0.08) #44
  %.not = icmp eq ptr %15, %13
  br i1 %.not, label %.loopexit, label %.lr.ph, !llvm.loop !208

.loopexit:                                        ; preds = %.lr.ph, %10, %6
  %.05 = phi i32 [ 0, %6 ], [ 0, %10 ], [ %14, %.lr.ph ]
  ret i32 %.05
}